target datalayout = "e-m:e-p270:32:32-p271:32:32-p272:64:64-i64:64-i128:128-f80:128-n8:16:32:64-S128"
target triple = "x86_64-pc-linux-gnu"

%union.pthread_mutex_t = type { %struct.__pthread_mutex_s }
%struct.__pthread_mutex_s = type { i32, i32, i32, i32, i32, i16, i16, %struct.__pthread_internal_list }
%struct.__pthread_internal_list = type { ptr, ptr }
%struct.SessionRow = type { i32, i32, [3 x %struct.WOLFSSL_SESSION] }
%struct.WOLFSSL_SESSION = type { i32, i32, %struct.wolfSSL_RefWithMutex, [32 x i8], i8, ptr, i8, i32, i32, [32 x i8], i8, [48 x i8], i16, i8, i8, i16, [20 x i8], i16, i8 }
%struct.wolfSSL_RefWithMutex = type { %union.pthread_mutex_t, i32 }

@session_lock = internal global %union.pthread_mutex_t zeroinitializer, align 8
@SessionCache = internal global [11 x %struct.SessionRow] zeroinitializer, align 16
@initRefCount = internal global i32 0, align 4
@inits_count_mutex = internal global %union.pthread_mutex_t zeroinitializer, align 8
@session_lock_valid = internal global i32 0, align 4

; Function Attrs: inlinehint nounwind uwtable
define internal void @ForceZero(ptr noundef %0, i32 noundef %1) #4 {
  %3 = alloca ptr, align 8
  %4 = alloca i32, align 4
  %5 = alloca ptr, align 8
  %6 = alloca ptr, align 8
  %7 = alloca i32, align 4
  store ptr %0, ptr %3, align 8, !tbaa !3
  store i32 %1, ptr %4, align 4, !tbaa !7
  call void @llvm.lifetime.start.p0(i64 8, ptr %5) #9
  %8 = load ptr, ptr %3, align 8, !tbaa !3
  store ptr %8, ptr %5, align 8, !tbaa !21
  call void @llvm.lifetime.start.p0(i64 8, ptr %6) #9
  call void @llvm.lifetime.start.p0(i64 4, ptr %7) #9
  %9 = load ptr, ptr %5, align 8, !tbaa !21
  %10 = ptrtoint ptr %9 to i64
  %11 = and i64 %10, 7
  %12 = sub i64 8, %11
  %13 = and i64 %12, 7
  %14 = trunc i64 %13 to i32
  store i32 %14, ptr %7, align 4, !tbaa !7
  %15 = load i32, ptr %4, align 4, !tbaa !7
  %16 = load i32, ptr %7, align 4, !tbaa !7
  %17 = icmp ult i32 %15, %16
  br i1 %17, label %18, label %20

18:                                               ; preds = %2
  %19 = load i32, ptr %4, align 4, !tbaa !7
  store i32 %19, ptr %7, align 4, !tbaa !7
  br label %20

20:                                               ; preds = %18, %2
  %21 = load i32, ptr %7, align 4, !tbaa !7
  %22 = load i32, ptr %4, align 4, !tbaa !7
  %23 = sub i32 %22, %21
  store i32 %23, ptr %4, align 4, !tbaa !7
  br label %24

24:                                               ; preds = %28, %20
  %25 = load i32, ptr %7, align 4, !tbaa !7
  %26 = add i32 %25, -1
  store i32 %26, ptr %7, align 4, !tbaa !7
  %27 = icmp ne i32 %25, 0
  br i1 %27, label %28, label %31

28:                                               ; preds = %24
  %29 = load ptr, ptr %5, align 8, !tbaa !21
  %30 = getelementptr inbounds nuw i8, ptr %29, i32 1
  store ptr %30, ptr %5, align 8, !tbaa !21
  store volatile i8 0, ptr %29, align 1, !tbaa !20
  br label %24, !llvm.loop !57

31:                                               ; preds = %24
  %32 = load ptr, ptr %5, align 8, !tbaa !21
  store ptr %32, ptr %6, align 8, !tbaa !51
  br label %33

33:                                               ; preds = %40, %31
  %34 = load i32, ptr %4, align 4, !tbaa !7
  %35 = zext i32 %34 to i64
  %36 = icmp uge i64 %35, 8
  br i1 %36, label %37, label %43

37:                                               ; preds = %33
  %38 = load ptr, ptr %6, align 8, !tbaa !51
  %39 = getelementptr inbounds nuw i64, ptr %38, i32 1
  store ptr %39, ptr %6, align 8, !tbaa !51
  store volatile i64 0, ptr %38, align 8, !tbaa !22
  br label %40

40:                                               ; preds = %37
  %41 = load i32, ptr %4, align 4, !tbaa !7
  %42 = sub i32 %41, 8
  store i32 %42, ptr %4, align 4, !tbaa !7
  br label %33, !llvm.loop !59

43:                                               ; preds = %33
  %44 = load ptr, ptr %6, align 8, !tbaa !51
  store ptr %44, ptr %5, align 8, !tbaa !21
  br label %45

45:                                               ; preds = %49, %43
  %46 = load i32, ptr %4, align 4, !tbaa !7
  %47 = add i32 %46, -1
  store i32 %47, ptr %4, align 4, !tbaa !7
  %48 = icmp ne i32 %46, 0
  br i1 %48, label %49, label %52

49:                                               ; preds = %45
  %50 = load ptr, ptr %5, align 8, !tbaa !21
  %51 = getelementptr inbounds nuw i8, ptr %50, i32 1
  store ptr %51, ptr %5, align 8, !tbaa !21
  store volatile i8 0, ptr %50, align 1, !tbaa !20
  br label %45, !llvm.loop !60

52:                                               ; preds = %45
  call void @llvm.lifetime.end.p0(i64 4, ptr %7) #9
  call void @llvm.lifetime.end.p0(i64 8, ptr %6) #9
  call void @llvm.lifetime.end.p0(i64 8, ptr %5) #9
  ret void
}

; Function Attrs: nounwind uwtable
define void @EvictSessionFromCache(ptr noundef %0) #0 {
  %2 = alloca ptr, align 8
  store ptr %0, ptr %2, align 8, !tbaa !53
  %3 = load ptr, ptr %2, align 8, !tbaa !53
  %4 = getelementptr inbounds nuw %struct.WOLFSSL_SESSION, ptr %3, i32 0, i32 11
  %5 = getelementptr inbounds [48 x i8], ptr %4, i64 0, i64 0
  call void @ForceZero(ptr noundef %5, i32 noundef 48)
  %6 = load ptr, ptr %2, align 8, !tbaa !53
  %7 = getelementptr inbounds nuw %struct.WOLFSSL_SESSION, ptr %6, i32 0, i32 9
  %8 = getelementptr inbounds [32 x i8], ptr %7, i64 0, i64 0
  call void @llvm.memset.p0.i64(ptr align 4 %8, i8 0, i64 32, i1 false)
  %9 = load ptr, ptr %2, align 8, !tbaa !53
  %10 = getelementptr inbounds nuw %struct.WOLFSSL_SESSION, ptr %9, i32 0, i32 10
  store i8 0, ptr %10, align 4, !tbaa !55
  ret void
}

; Function Attrs: nounwind uwtable
define i32 @wolfSSL_Cleanup() #0 {
  %1 = alloca i32, align 4
  %2 = alloca i32, align 4
  %3 = alloca i32, align 4
  %4 = alloca i32, align 4
  %5 = alloca i32, align 4
  %6 = alloca i32, align 4
  call void @llvm.lifetime.start.p0(i64 4, ptr %2) #9
  store i32 1, ptr %2, align 4, !tbaa !7
  call void @llvm.lifetime.start.p0(i64 4, ptr %3) #9
  store i32 0, ptr %3, align 4, !tbaa !7
  call void @llvm.lifetime.start.p0(i64 4, ptr %4) #9
  call void @llvm.lifetime.start.p0(i64 4, ptr %5) #9
  br label %7

7:                                                ; preds = %0
  br label %8

8:                                                ; preds = %7
  br label %9

9:                                                ; preds = %8
  %10 = call i32 @wc_LockMutex(ptr noundef @inits_count_mutex)
  %11 = icmp ne i32 %10, 0
  br i1 %11, label %12, label %16

12:                                               ; preds = %9
  br label %13

13:                                               ; preds = %12
  br label %14

14:                                               ; preds = %13
  br label %15

15:                                               ; preds = %14
  store i32 -106, ptr %1, align 4
  store i32 1, ptr %6, align 4
  br label %79

16:                                               ; preds = %9
  %17 = load volatile i32, ptr @initRefCount, align 4, !tbaa !7
  %18 = icmp sgt i32 %17, 0
  br i1 %18, label %19, label %26

19:                                               ; preds = %16
  %20 = load volatile i32, ptr @initRefCount, align 4, !tbaa !7
  %21 = add nsw i32 %20, -1
  store volatile i32 %21, ptr @initRefCount, align 4, !tbaa !7
  %22 = load volatile i32, ptr @initRefCount, align 4, !tbaa !7
  %23 = icmp eq i32 %22, 0
  br i1 %23, label %24, label %25

24:                                               ; preds = %19
  store i32 1, ptr %3, align 4, !tbaa !7
  br label %25

25:                                               ; preds = %24, %19
  br label %26

26:                                               ; preds = %25, %16
  %27 = call i32 @wc_UnLockMutex(ptr noundef @inits_count_mutex)
  %28 = load i32, ptr %3, align 4, !tbaa !7
  %29 = icmp ne i32 %28, 0
  br i1 %29, label %32, label %30

30:                                               ; preds = %26
  %31 = load i32, ptr %2, align 4, !tbaa !7
  store i32 %31, ptr %1, align 4
  store i32 1, ptr %6, align 4
  br label %79

32:                                               ; preds = %26
  %33 = load i32, ptr @session_lock_valid, align 4, !tbaa !7
  %34 = icmp eq i32 %33, 1
  br i1 %34, label %35, label %43

35:                                               ; preds = %32
  %36 = call i32 @wc_FreeRwLock(ptr noundef @session_lock)
  %37 = icmp ne i32 %36, 0
  br i1 %37, label %38, label %43

38:                                               ; preds = %35
  %39 = load i32, ptr %2, align 4, !tbaa !7
  %40 = icmp eq i32 %39, 1
  br i1 %40, label %41, label %42

41:                                               ; preds = %38
  store i32 -106, ptr %2, align 4, !tbaa !7
  br label %42

42:                                               ; preds = %41, %38
  br label %43

43:                                               ; preds = %42, %35, %32
  store i32 0, ptr @session_lock_valid, align 4, !tbaa !7
  store i32 0, ptr %4, align 4, !tbaa !7
  br label %44

44:                                               ; preds = %63, %43
  %45 = load i32, ptr %4, align 4, !tbaa !7
  %46 = icmp slt i32 %45, 11
  br i1 %46, label %47, label %66

47:                                               ; preds = %44
  store i32 0, ptr %5, align 4, !tbaa !7
  br label %48

48:                                               ; preds = %59, %47
  %49 = load i32, ptr %5, align 4, !tbaa !7
  %50 = icmp slt i32 %49, 3
  br i1 %50, label %51, label %62

51:                                               ; preds = %48
  %52 = load i32, ptr %4, align 4, !tbaa !7
  %53 = sext i32 %52 to i64
  %54 = getelementptr inbounds [11 x %struct.SessionRow], ptr @SessionCache, i64 0, i64 %53
  %55 = getelementptr inbounds nuw %struct.SessionRow, ptr %54, i32 0, i32 2
  %56 = load i32, ptr %5, align 4, !tbaa !7
  %57 = sext i32 %56 to i64
  %58 = getelementptr inbounds [3 x %struct.WOLFSSL_SESSION], ptr %55, i64 0, i64 %57
  call void @EvictSessionFromCache(ptr noundef %58)
  br label %59

59:                                               ; preds = %51
  %60 = load i32, ptr %5, align 4, !tbaa !7
  %61 = add nsw i32 %60, 1
  store i32 %61, ptr %5, align 4, !tbaa !7
  br label %48, !llvm.loop !219

62:                                               ; preds = %48
  br label %63

63:                                               ; preds = %62
  %64 = load i32, ptr %4, align 4, !tbaa !7
  %65 = add nsw i32 %64, 1
  store i32 %65, ptr %4, align 4, !tbaa !7
  br label %44, !llvm.loop !220

66:                                               ; preds = %44
  %67 = call i32 @wolfCrypt_Cleanup()
  %68 = icmp ne i32 %67, 0
  br i1 %68, label %69, label %77

69:                                               ; preds = %66
  br label %70

70:                                               ; preds = %69
  br label %71

71:                                               ; preds = %70
  br label %72

72:                                               ; preds = %71
  %73 = load i32, ptr %2, align 4, !tbaa !7
  %74 = icmp eq i32 %73, 1
  br i1 %74, label %75, label %76

75:                                               ; preds = %72
  store i32 -241, ptr %2, align 4, !tbaa !7
  br label %76

76:                                               ; preds = %75, %72
  br label %77

77:                                               ; preds = %76, %66
  %78 = load i32, ptr %2, align 4, !tbaa !7
  store i32 %78, ptr %1, align 4
  store i32 1, ptr %6, align 4
  br label %79

79:                                               ; preds = %77, %30, %15
  call void @llvm.lifetime.end.p0(i64 4, ptr %5) #9
  call void @llvm.lifetime.end.p0(i64 4, ptr %4) #9
  call void @llvm.lifetime.end.p0(i64 4, ptr %3) #9
  call void @llvm.lifetime.end.p0(i64 4, ptr %2) #9
  %80 = load i32, ptr %1, align 4
  ret i32 %80
}