; Function Attrs: nounwind uwtable
define range(i32 -241, 2) i32 @wolfSSL_Cleanup() local_unnamed_addr #0 {
  %1 = tail call i32 @wc_LockMutex(ptr noundef nonnull @inits_count_mutex) #22
  %.not = icmp eq i32 %1, 0
  br i1 %.not, label %2, label %34

2:                                                ; preds = %0
  %3 = load volatile i32, ptr @initRefCount, align 4, !tbaa !3
  %4 = icmp sgt i32 %3, 0
  br i1 %4, label %5, label %.critedge

5:                                                ; preds = %2
  %6 = load volatile i32, ptr @initRefCount, align 4, !tbaa !3
  %7 = add nsw i32 %6, -1
  store volatile i32 %7, ptr @initRefCount, align 4, !tbaa !3
  %8 = load volatile i32, ptr @initRefCount, align 4, !tbaa !3
  %.not23 = icmp eq i32 %8, 0
  %9 = tail call i32 @wc_UnLockMutex(ptr noundef nonnull @inits_count_mutex) #22
  br i1 %.not23, label %11, label %34

.critedge:                                        ; preds = %2
  %10 = tail call i32 @wc_UnLockMutex(ptr noundef nonnull @inits_count_mutex) #22
  br label %34

11:                                               ; preds = %5
  %.b = load i1, ptr @session_lock_valid, align 4
  br i1 %.b, label %12, label %14

12:                                               ; preds = %11
  %13 = tail call i32 @wc_FreeRwLock(ptr noundef nonnull @session_lock) #22
  %.not18 = icmp eq i32 %13, 0
  %spec.select20 = select i1 %.not18, i32 -241, i32 -106
  %spec.select21 = select i1 %.not18, i32 1, i32 -106
  br label %14

14:                                               ; preds = %12, %11
  %spec.store.select1 = phi i32 [ -241, %11 ], [ %spec.select20, %12 ]
  %.015 = phi i32 [ 1, %11 ], [ %spec.select21, %12 ]
  store i1 false, ptr @session_lock_valid, align 4
  br label %.preheader

.preheader:                                       ; preds = %14, %31
  %indvars.iv31 = phi i64 [ 0, %14 ], [ %indvars.iv.next32, %31 ]
  br label %15

15:                                               ; preds = %.preheader, %EvictSessionFromCache.exit
  %indvars.iv = phi i64 [ 0, %.preheader ], [ %indvars.iv.next, %EvictSessionFromCache.exit ]
  %16 = getelementptr inbounds nuw [11 x %struct.SessionRow], ptr @SessionCache, i64 0, i64 %indvars.iv31, i32 2, i64 %indvars.iv
  %17 = getelementptr inbounds nuw i8, ptr %16, i64 149
  %18 = ptrtoint ptr %17 to i64
  %19 = trunc i64 %18 to i32
  %20 = sub nsw i32 0, %19
  %21 = and i32 %20, 7
  %22 = sub nuw nsw i32 48, %21
  %.not24.i.i = icmp eq i32 %21, 0
  br i1 %.not24.i.i, label %.lr.ph29.i.i.preheader, label %.lr.ph.i.i

.lr.ph.i.i:                                       ; preds = %15, %.lr.ph.i.i
  %.126.i.i = phi i32 [ %23, %.lr.ph.i.i ], [ %21, %15 ]
  %.01625.i.i = phi ptr [ %24, %.lr.ph.i.i ], [ %17, %15 ]
  %23 = add nsw i32 %.126.i.i, -1
  %24 = getelementptr inbounds nuw i8, ptr %.01625.i.i, i64 1
  store volatile i8 0, ptr %.01625.i.i, align 1, !tbaa !43
  %.not.i.i = icmp eq i32 %23, 0
  br i1 %.not.i.i, label %.lr.ph29.i.i.preheader, label %.lr.ph.i.i, !llvm.loop !44

.lr.ph29.i.i.preheader:                           ; preds = %.lr.ph.i.i, %15
  %.01528.i.i.ph = phi ptr [ %17, %15 ], [ %24, %.lr.ph.i.i ]
  br label %.lr.ph29.i.i

.lr.ph29.i.i:                                     ; preds = %.lr.ph29.i.i.preheader, %.lr.ph29.i.i
  %.01528.i.i = phi ptr [ %25, %.lr.ph29.i.i ], [ %.01528.i.i.ph, %.lr.ph29.i.i.preheader ]
  %.01827.i.i = phi i32 [ %26, %.lr.ph29.i.i ], [ %22, %.lr.ph29.i.i.preheader ]
  %25 = getelementptr inbounds nuw i8, ptr %.01528.i.i, i64 8
  store volatile i64 0, ptr %.01528.i.i, align 8, !tbaa !27
  %26 = add nsw i32 %.01827.i.i, -8
  %27 = icmp ugt i32 %26, 7
  br i1 %27, label %.lr.ph29.i.i, label %.lr.ph35.i.i, !llvm.loop !45

.lr.ph35.i.i:                                     ; preds = %.lr.ph29.i.i, %.lr.ph35.i.i
  %.11734.i.i = phi ptr [ %29, %.lr.ph35.i.i ], [ %25, %.lr.ph29.i.i ]
  %.11933.i.i = phi i32 [ %28, %.lr.ph35.i.i ], [ 5, %.lr.ph29.i.i ]
  %28 = add nsw i32 %.11933.i.i, -1
  %29 = getelementptr inbounds nuw i8, ptr %.11734.i.i, i64 1
  store volatile i8 0, ptr %.11734.i.i, align 1, !tbaa !43
  %.not22.i.i = icmp eq i32 %28, 0
  br i1 %.not22.i.i, label %EvictSessionFromCache.exit, label %.lr.ph35.i.i, !llvm.loop !46

EvictSessionFromCache.exit:                       ; preds = %.lr.ph35.i.i
  %30 = getelementptr inbounds nuw i8, ptr %16, i64 116
  tail call void @llvm.memset.p0.i64(ptr noundef nonnull align 4 dereferenceable(33) %30, i8 0, i64 33, i1 false)
  %indvars.iv.next = add nuw nsw i64 %indvars.iv, 1
  %exitcond.not = icmp eq i64 %indvars.iv.next, 3
  br i1 %exitcond.not, label %31, label %15, !llvm.loop !190

31:                                               ; preds = %EvictSessionFromCache.exit
  %indvars.iv.next32 = add nuw nsw i64 %indvars.iv31, 1
  %exitcond34.not = icmp eq i64 %indvars.iv.next32, 11
  br i1 %exitcond34.not, label %32, label %.preheader, !llvm.loop !191

32:                                               ; preds = %31
  %33 = tail call i32 @wolfCrypt_Cleanup() #22
  %.not19 = icmp eq i32 %33, 0
  %spec.select22 = select i1 %.not19, i32 %.015, i32 %spec.store.select1
  br label %34

34:                                               ; preds = %5, %.critedge, %0, %32
  %.016 = phi i32 [ %spec.select22, %32 ], [ -106, %0 ], [ 1, %.critedge ], [ 1, %5 ]
  ret i32 %.016
}